target datalayout = "e-m:e-p270:32:32-p271:32:32-p272:64:64-i64:64-i128:128-f80:128-n8:16:32:64-S128"
target triple = "x86_64-pc-linux-gnu"

%class.LibRaw = type { ptr, %struct.libraw_data_t, ptr, %struct.libraw_internal_data_t, [2048 x %struct.decode], ptr, ptr, [10 x %struct.tiff_ifd_t], %class.libraw_memmgr, %struct.libraw_callbacks_t, { i64, i64 }, { i64, i64 }, { i64, i64 }, ptr, ptr, ptr, i64, ptr, ptr, ptr, ptr }
%struct.libraw_data_t = type { ptr, %struct.libraw_image_sizes_t, %struct.libraw_iparams_t, %struct.libraw_lensinfo_t, %struct.libraw_makernotes_t, %struct.libraw_shootinginfo_t, %struct.libraw_output_params_t, %struct.libraw_raw_unpack_params_t, i32, i32, %struct.libraw_colordata_t, %struct.libraw_imgother_t, %struct.libraw_thumbnail_t, %struct.libraw_thumbnail_list_t, %struct.libraw_rawdata_t, ptr }
%struct.libraw_image_sizes_t = type { i16, i16, i16, i16, i16, i16, i16, i16, i32, double, i32, [8 x [4 x i32]], i16, [2 x %struct.libraw_raw_inset_crop_t] }
%struct.libraw_raw_inset_crop_t = type { i16, i16, i16, i16 }
%struct.libraw_iparams_t = type { [4 x i8], [64 x i8], [64 x i8], [64 x i8], [64 x i8], [64 x i8], i32, i32, i32, i32, i32, i32, [6 x [6 x i8]], [6 x [6 x i8]], [5 x i8], i32, ptr }
%struct.libraw_lensinfo_t = type { float, float, float, float, float, [128 x i8], [128 x i8], [128 x i8], [128 x i8], i16, %struct.libraw_nikonlens_t, %struct.libraw_dnglens_t, %struct.libraw_makernotes_lens_t }
%struct.libraw_nikonlens_t = type { float, i8, i8, i8, i8 }
%struct.libraw_dnglens_t = type { float, float, float, float }
%struct.libraw_makernotes_lens_t = type { i64, [128 x i8], i16, i16, i64, i16, i16, [64 x i8], i16, [16 x i8], [16 x i8], float, float, float, float, float, float, float, float, float, float, float, float, float, float, float, i64, [128 x i8], i64, [128 x i8], i64, [128 x i8], i16, float }
%struct.libraw_makernotes_t = type { %struct.libraw_canon_makernotes_t, %struct.libraw_nikon_makernotes_t, %struct.libraw_hasselblad_makernotes_t, %struct.libraw_fuji_info_t, %struct.libraw_olympus_makernotes_t, %struct.libraw_sony_info_t, %struct.libraw_kodak_makernotes_t, %struct.libraw_panasonic_makernotes_t, %struct.libraw_pentax_makernotes_t, %struct.libraw_p1_makernotes_t, %struct.libraw_ricoh_makernotes_t, %struct.libraw_samsung_makernotes_t, %struct.libraw_metadata_common_t }
%struct.libraw_canon_makernotes_t = type { i32, i32, i32, i32, [4 x i32], i32, [4 x i32], i16, i16, i8, i16, i16, i16, i16, i16, i16, i16, i16, i16, i16, i16, i16, i16, i32, float, i16, i16, i16, i32, i16, i32, i32, i16, i32, %struct.libraw_area_t, %struct.libraw_area_t, %struct.libraw_area_t, %struct.libraw_area_t, %struct.libraw_area_t, [2 x i16] }
%struct.libraw_area_t = type { i16, i16, i16, i16 }
%struct.libraw_nikon_makernotes_t = type { double, i16, i16, [7 x i8], i8, i8, [13 x i8], [20 x i8], [4 x i8], [4 x i8], [4 x i8], i8, i8, i8, i8, i8, [2 x i8], i8, i8, i8, i8, i8, [4 x i8], [4 x i8], i8, i16, i32, i32, i32, i32, [4 x double], i8, i8, i8, i32, i32, i32, i8, [4 x i16], i16, %struct.libraw_sensor_highspeed_crop_t, i16, i16, i16, i32, [20 x i8], [20 x i8], i32, i16, double, double, double }
%struct.libraw_sensor_highspeed_crop_t = type { i16, i16, i16, i16 }
%struct.libraw_hasselblad_makernotes_t = type { i32, double, [8 x i8], [64 x i8], [64 x i8], i32, i32, i32, i32, [32 x i8], [64 x i8], i32, [2 x i32], [2 x i32], [4 x [3 x double]] }
%struct.libraw_fuji_info_t = type { float, i16, i16, i16, i16, i16, i16, i16, i16, [33 x i8], [33 x i8], float, i16, i16, [2 x i16], i16, i32, i32, i16, [3 x i16], i16, i16, i16, i16, i16, i32, i16, [13 x i8], [5 x i8], [5 x i8], i32, i16, i32, i16, [9 x i16], [32 x i32], i32, i32, i32, [2 x float], i32 }
%struct.libraw_olympus_makernotes_t = type { [6 x i8], i16, [2 x i32], [5 x i16], i16, [2 x i16], i16, i16, [64 x i32], [5 x double], i16, i8, [3 x i16], [3 x i32], i16, i16, i16, i16, double, [4 x i16], [2 x i32], i8, i32, i16, i16 }
%struct.libraw_sony_info_t = type { i16, i8, i8, i32, i8, i32, i8, i8, i16, [2 x i16], i8, i8, i16, [10 x i8], i8, i8, [4 x i16], i16, i8, i8, i8, i16, i32, i16, [2 x i16], i16, i16, i16, i16, i16, i16, i16, i32, float, i16, i32, i32, i16, [20 x i8], i32, i16, i32, i8, i8, i16, i16, i16, i16, i16, i16, i16, i16, i16, i32, i16, [16 x i8], float }
%struct.libraw_kodak_makernotes_t = type { i16, i16, i16, i16, i16, i16, [3 x [3 x float]], [3 x [3 x float]], [3 x [3 x float]], [3 x [3 x float]], [3 x [3 x float]], [3 x [3 x float]], i16, i16, i16, i16, float, float }
%struct.libraw_panasonic_makernotes_t = type { i16, i16, [8 x float], i32, float, [3 x i32], i16, i16, i32, i32 }
%struct.libraw_pentax_makernotes_t = type { [4 x i8], [2 x i16], [2 x i16], i16, i32, i32, i16, i16, i8, i8, i16 }
%struct.libraw_p1_makernotes_t = type { [64 x i8], [64 x i8], [256 x i8], [64 x i8] }
%struct.libraw_ricoh_makernotes_t = type { i16, [2 x i32], [2 x i32], i16, i32, i32, i32, i32, i16, i16, i16, i16, i16, i16, double, double }
%struct.libraw_samsung_makernotes_t = type { [4 x i32], [4 x i32], [2 x i32], [11 x i32], double, i32, [32 x i8] }
%struct.libraw_metadata_common_t = type { float, float, float, float, float, float, float, float, float, float, float, float, float, float, float, float, i16, [128 x i8], float, [4 x %struct.libraw_afinfo_item_t], i32 }
%struct.libraw_afinfo_item_t = type { i32, i16, i32, i32, ptr }
%struct.libraw_shootinginfo_t = type { i16, i16, i16, i16, i16, i16, i16, [64 x i8], [64 x i8] }
%struct.libraw_output_params_t = type { [4 x i32], [4 x i32], [4 x double], [6 x double], [4 x float], float, float, i32, i32, i32, i32, i32, i32, i32, ptr, ptr, ptr, ptr, i32, i32, i32, i32, i32, i32, [4 x i32], i32, i32, float, float, i32, i32, i32, i32, i32, i32, i32, i32, float, float, i32, i32 }
%struct.libraw_raw_unpack_params_t = type { i32, i32, i32, i32, i32, i32, i32, float, [5 x i8], ptr }
%struct.libraw_colordata_t = type { [65536 x i16], [4104 x i32], i32, i32, i32, [4 x i64], float, float, [8 x [8 x i16]], [4 x float], [4 x float], [3 x [4 x float]], [3 x [4 x float]], [3 x [4 x float]], [4 x [3 x float]], %struct.ph1_t, float, float, [64 x i8], [64 x i8], [64 x i8], [64 x i8], [17 x i8], [64 x i8], ptr, i32, [8 x i32], [2 x %struct.libraw_dng_color_t], %struct.libraw_dng_levels_t, [256 x [4 x i32]], [64 x [5 x float]], i32, [2 x %struct.libraw_P1_color_t], i32, i32 }
%struct.ph1_t = type { i32, i32, i32, i32, i32, i32, i32, i32, float }
%struct.libraw_dng_color_t = type { i32, i16, [4 x [4 x float]], [4 x [3 x float]], [3 x [4 x float]] }
%struct.libraw_dng_levels_t = type { i32, [4104 x i32], i32, [4104 x float], float, [4 x i32], [4 x i16], [4 x float], i32, [4 x float], [4 x float], float, float }
%struct.libraw_P1_color_t = type { [9 x float] }
%struct.libraw_imgother_t = type { float, float, float, float, i64, i32, [32 x i32], %struct.libraw_gps_info_t, [512 x i8], [64 x i8], [4 x float] }
%struct.libraw_gps_info_t = type { [3 x float], [3 x float], [3 x float], float, i8, i8, i8, i8, i8 }
%struct.libraw_thumbnail_t = type { i32, i16, i16, i32, i32, ptr }
%struct.libraw_thumbnail_list_t = type { i32, [8 x %struct.libraw_thumbnail_item_t] }
%struct.libraw_thumbnail_item_t = type { i32, i16, i16, i16, i32, i32, i64 }
%struct.libraw_rawdata_t = type { ptr, ptr, ptr, ptr, ptr, ptr, ptr, ptr, ptr, %struct.libraw_iparams_t, %struct.libraw_image_sizes_t, %struct.libraw_internal_output_params_t, %struct.libraw_colordata_t }
%struct.libraw_internal_output_params_t = type { i32, i32, i32, i16, i16 }
%struct.libraw_internal_data_t = type { %struct.internal_data_t, %struct.libraw_internal_output_params_t, %struct.output_data_t, %struct.identify_data_t, %struct.unpacker_data_t }
%struct.internal_data_t = type { ptr, ptr, i32, ptr, i64, i64, [4 x i32] }
%struct.output_data_t = type { ptr, ptr }
%struct.identify_data_t = type { i32, i64, i64, i32, i32, i32 }
%struct.unpacker_data_t = type { i16, [4 x i16], [3 x i16], i32, i64, i64, i64, i64, i64, i64, i32, i32, i32, i32, i32, i32, i32, i32, i32, i32, i32, i32, i32, i32, i32, i32, i32, i64, i32, i32, i32, i32, i32, i32, i32, i32, i32, %struct.pana8_tags_t, [16 x %struct.crx_data_header_t], i32, i32, i16, i16, i32, i32, i32, i32, i32, i32, i32, [20 x i32], i16 }
%struct.pana8_tags_t = type { [6 x i32], [6 x i16], i16, [4 x i16], [17 x i16], [17 x i16], [17 x i16], i16, i16, [5 x i64], [5 x i16], [5 x i32], [5 x i16], [5 x i16] }
%struct.crx_data_header_t = type { i32, i32, i32, i32, i32, i32, i32, i32, i32, i32, i32, i32, i32, i32, i32, i64, i32, ptr, i32, i32, i32, ptr, i32, ptr }
%struct.decode = type { [2 x ptr], i32 }
%struct.tiff_ifd_t = type { i32, i32, i32, i32, i32, i32, i32, i32, i32, i32, i32, i32, i32, i32, i32, ptr, i32, ptr, i32, i32, i32, i32, i32, i32, i32, float, i64, i64, i32, [2 x %struct.libraw_dng_color_t], %struct.libraw_dng_levels_t, i32 }
%class.libraw_memmgr = type <{ ptr, i32, [4 x i8] }>
%struct.libraw_callbacks_t = type { ptr, ptr, ptr, ptr, ptr, ptr, ptr, ptr, ptr, ptr, ptr, ptr, ptr, ptr, ptr, ptr, ptr }

; Function Attrs: mustprogress nounwind uwtable
define void @_ZN6LibRaw10rgb_to_lchEPA3_d(ptr noundef nonnull align 8 dereferenceable(767680) %0, ptr noundef %1) #2 align 2 {
  %3 = alloca ptr, align 8
  %4 = alloca ptr, align 8
  %5 = alloca i32, align 4
  store ptr %0, ptr %3, align 8, !tbaa !6
  store ptr %1, ptr %4, align 8, !tbaa !122
  %6 = load ptr, ptr %3, align 8
  call void @llvm.lifetime.start.p0(i64 4, ptr %5) #6
  store i32 0, ptr %5, align 4, !tbaa !74
  br label %7

7:                                                ; preds = %121, %2
  %8 = load i32, ptr %5, align 4, !tbaa !74
  %9 = getelementptr inbounds nuw %class.LibRaw, ptr %6, i32 0, i32 1
  %10 = getelementptr inbounds nuw %struct.libraw_data_t, ptr %9, i32 0, i32 1
  %11 = getelementptr inbounds nuw %struct.libraw_image_sizes_t, ptr %10, i32 0, i32 2
  %12 = load i16, ptr %11, align 4, !tbaa !75
  %13 = zext i16 %12 to i32
  %14 = getelementptr inbounds nuw %class.LibRaw, ptr %6, i32 0, i32 1
  %15 = getelementptr inbounds nuw %struct.libraw_data_t, ptr %14, i32 0, i32 1
  %16 = getelementptr inbounds nuw %struct.libraw_image_sizes_t, ptr %15, i32 0, i32 3
  %17 = load i16, ptr %16, align 2, !tbaa !13
  %18 = zext i16 %17 to i32
  %19 = mul nsw i32 %13, %18
  %20 = icmp slt i32 %8, %19
  br i1 %20, label %21, label %124

21:                                               ; preds = %7
  %22 = getelementptr inbounds nuw %class.LibRaw, ptr %6, i32 0, i32 1
  %23 = getelementptr inbounds nuw %struct.libraw_data_t, ptr %22, i32 0, i32 0
  %24 = load ptr, ptr %23, align 8, !tbaa !76
  %25 = load i32, ptr %5, align 4, !tbaa !74
  %26 = sext i32 %25 to i64
  %27 = getelementptr inbounds [4 x i16], ptr %24, i64 %26
  %28 = getelementptr inbounds [4 x i16], ptr %27, i64 0, i64 0
  %29 = load i16, ptr %28, align 2, !tbaa !77
  %30 = zext i16 %29 to i32
  %31 = getelementptr inbounds nuw %class.LibRaw, ptr %6, i32 0, i32 1
  %32 = getelementptr inbounds nuw %struct.libraw_data_t, ptr %31, i32 0, i32 0
  %33 = load ptr, ptr %32, align 8, !tbaa !76
  %34 = load i32, ptr %5, align 4, !tbaa !74
  %35 = sext i32 %34 to i64
  %36 = getelementptr inbounds [4 x i16], ptr %33, i64 %35
  %37 = getelementptr inbounds [4 x i16], ptr %36, i64 0, i64 1
  %38 = load i16, ptr %37, align 2, !tbaa !77
  %39 = zext i16 %38 to i32
  %40 = add nsw i32 %30, %39
  %41 = getelementptr inbounds nuw %class.LibRaw, ptr %6, i32 0, i32 1
  %42 = getelementptr inbounds nuw %struct.libraw_data_t, ptr %41, i32 0, i32 0
  %43 = load ptr, ptr %42, align 8, !tbaa !76
  %44 = load i32, ptr %5, align 4, !tbaa !74
  %45 = sext i32 %44 to i64
  %46 = getelementptr inbounds [4 x i16], ptr %43, i64 %45
  %47 = getelementptr inbounds [4 x i16], ptr %46, i64 0, i64 2
  %48 = load i16, ptr %47, align 2, !tbaa !77
  %49 = zext i16 %48 to i32
  %50 = add nsw i32 %40, %49
  %51 = sitofp i32 %50 to double
  %52 = load ptr, ptr %4, align 8, !tbaa !122
  %53 = load i32, ptr %5, align 4, !tbaa !74
  %54 = sext i32 %53 to i64
  %55 = getelementptr inbounds [3 x double], ptr %52, i64 %54
  %56 = getelementptr inbounds [3 x double], ptr %55, i64 0, i64 0
  store double %51, ptr %56, align 8, !tbaa !124
  %57 = getelementptr inbounds nuw %class.LibRaw, ptr %6, i32 0, i32 1
  %58 = getelementptr inbounds nuw %struct.libraw_data_t, ptr %57, i32 0, i32 0
  %59 = load ptr, ptr %58, align 8, !tbaa !76
  %60 = load i32, ptr %5, align 4, !tbaa !74
  %61 = sext i32 %60 to i64
  %62 = getelementptr inbounds [4 x i16], ptr %59, i64 %61
  %63 = getelementptr inbounds [4 x i16], ptr %62, i64 0, i64 0
  %64 = load i16, ptr %63, align 2, !tbaa !77
  %65 = zext i16 %64 to i32
  %66 = getelementptr inbounds nuw %class.LibRaw, ptr %6, i32 0, i32 1
  %67 = getelementptr inbounds nuw %struct.libraw_data_t, ptr %66, i32 0, i32 0
  %68 = load ptr, ptr %67, align 8, !tbaa !76
  %69 = load i32, ptr %5, align 4, !tbaa !74
  %70 = sext i32 %69 to i64
  %71 = getelementptr inbounds [4 x i16], ptr %68, i64 %70
  %72 = getelementptr inbounds [4 x i16], ptr %71, i64 0, i64 1
  %73 = load i16, ptr %72, align 2, !tbaa !77
  %74 = zext i16 %73 to i32
  %75 = sub nsw i32 %65, %74
  %76 = sitofp i32 %75 to double
  %77 = fmul reassoc nsz arcp contract afn double 0x3FFBB67AE875ED0F, %76
  %78 = load ptr, ptr %4, align 8, !tbaa !122
  %79 = load i32, ptr %5, align 4, !tbaa !74
  %80 = sext i32 %79 to i64
  %81 = getelementptr inbounds [3 x double], ptr %78, i64 %80
  %82 = getelementptr inbounds [3 x double], ptr %81, i64 0, i64 1
  store double %77, ptr %82, align 8, !tbaa !124
  %83 = getelementptr inbounds nuw %class.LibRaw, ptr %6, i32 0, i32 1
  %84 = getelementptr inbounds nuw %struct.libraw_data_t, ptr %83, i32 0, i32 0
  %85 = load ptr, ptr %84, align 8, !tbaa !76
  %86 = load i32, ptr %5, align 4, !tbaa !74
  %87 = sext i32 %86 to i64
  %88 = getelementptr inbounds [4 x i16], ptr %85, i64 %87
  %89 = getelementptr inbounds [4 x i16], ptr %88, i64 0, i64 2
  %90 = load i16, ptr %89, align 2, !tbaa !77
  %91 = zext i16 %90 to i32
  %92 = sitofp i32 %91 to double
  %93 = fmul reassoc nsz arcp contract afn double 2.000000e+00, %92
  %94 = getelementptr inbounds nuw %class.LibRaw, ptr %6, i32 0, i32 1
  %95 = getelementptr inbounds nuw %struct.libraw_data_t, ptr %94, i32 0, i32 0
  %96 = load ptr, ptr %95, align 8, !tbaa !76
  %97 = load i32, ptr %5, align 4, !tbaa !74
  %98 = sext i32 %97 to i64
  %99 = getelementptr inbounds [4 x i16], ptr %96, i64 %98
  %100 = getelementptr inbounds [4 x i16], ptr %99, i64 0, i64 0
  %101 = load i16, ptr %100, align 2, !tbaa !77
  %102 = zext i16 %101 to i32
  %103 = sitofp i32 %102 to double
  %104 = fsub reassoc nsz arcp contract afn double %93, %103
  %105 = getelementptr inbounds nuw %class.LibRaw, ptr %6, i32 0, i32 1
  %106 = getelementptr inbounds nuw %struct.libraw_data_t, ptr %105, i32 0, i32 0
  %107 = load ptr, ptr %106, align 8, !tbaa !76
  %108 = load i32, ptr %5, align 4, !tbaa !74
  %109 = sext i32 %108 to i64
  %110 = getelementptr inbounds [4 x i16], ptr %107, i64 %109
  %111 = getelementptr inbounds [4 x i16], ptr %110, i64 0, i64 1
  %112 = load i16, ptr %111, align 2, !tbaa !77
  %113 = zext i16 %112 to i32
  %114 = sitofp i32 %113 to double
  %115 = fsub reassoc nsz arcp contract afn double %104, %114
  %116 = load ptr, ptr %4, align 8, !tbaa !122
  %117 = load i32, ptr %5, align 4, !tbaa !74
  %118 = sext i32 %117 to i64
  %119 = getelementptr inbounds [3 x double], ptr %116, i64 %118
  %120 = getelementptr inbounds [3 x double], ptr %119, i64 0, i64 2
  store double %115, ptr %120, align 8, !tbaa !124
  br label %121

121:                                              ; preds = %21
  %122 = load i32, ptr %5, align 4, !tbaa !74
  %123 = add nsw i32 %122, 1
  store i32 %123, ptr %5, align 4, !tbaa !74
  br label %7, !llvm.loop !125

124:                                              ; preds = %7
  call void @llvm.lifetime.end.p0(i64 4, ptr %5) #6
  ret void
}