; Function Attrs: mustprogress nofree norecurse nosync nounwind memory(read, argmem: readwrite, inaccessiblemem: none) uwtable
define void @_ZN6LibRaw10rgb_to_lchEPA3_d(ptr noundef nonnull readonly align 8 captures(none) dereferenceable(767680) %0, ptr noundef writeonly captures(none) %1) local_unnamed_addr #0 align 2 {
  %3 = getelementptr inbounds nuw i8, ptr %0, i64 20
  %4 = load i16, ptr %3, align 4, !tbaa !71
  %5 = zext i16 %4 to i32
  %6 = getelementptr inbounds nuw i8, ptr %0, i64 22
  %7 = load i16, ptr %6, align 2, !tbaa !6
  %8 = zext i16 %7 to i32
  %9 = mul nuw nsw i32 %8, %5
  %.not = icmp eq i32 %9, 0
  br i1 %.not, label %._crit_edge, label %.lr.ph

.lr.ph:                                           ; preds = %2
  %10 = getelementptr inbounds nuw i8, ptr %0, i64 8
  %11 = load ptr, ptr %10, align 8, !tbaa !94
  %wide.trip.count = zext nneg i32 %9 to i64
  br label %12

12:                                               ; preds = %.lr.ph, %12
  %indvars.iv = phi i64 [ 0, %.lr.ph ], [ %indvars.iv.next, %12 ]
  %13 = getelementptr inbounds nuw [4 x i16], ptr %11, i64 %indvars.iv
  %14 = load i16, ptr %13, align 2, !tbaa !73
  %15 = zext i16 %14 to i32
  %16 = getelementptr inbounds nuw i8, ptr %13, i64 2
  %17 = load i16, ptr %16, align 2, !tbaa !73
  %18 = zext i16 %17 to i32
  %19 = add nuw nsw i32 %18, %15
  %20 = getelementptr inbounds nuw i8, ptr %13, i64 4
  %21 = load i16, ptr %20, align 2, !tbaa !73
  %22 = zext i16 %21 to i32
  %23 = add nuw nsw i32 %19, %22
  %24 = uitofp nneg i32 %23 to double
  %25 = getelementptr inbounds nuw [3 x double], ptr %1, i64 %indvars.iv
  store double %24, ptr %25, align 8, !tbaa !118
  %26 = sub nsw i32 %15, %18
  %27 = sitofp i32 %26 to double
  %28 = fmul reassoc nsz arcp contract afn double %27, 0x3FFBB67AE875ED0F
  %29 = getelementptr inbounds nuw i8, ptr %25, i64 8
  store double %28, ptr %29, align 8, !tbaa !118
  %30 = uitofp i16 %21 to double
  %31 = fmul reassoc nsz arcp contract afn double %30, 2.000000e+00
  %32 = uitofp i16 %14 to double
  %33 = uitofp i16 %17 to double
  %34 = fadd reassoc nsz arcp contract afn double %32, %33
  %35 = fsub reassoc nsz arcp contract afn double %31, %34
  %36 = getelementptr inbounds nuw i8, ptr %25, i64 16
  store double %35, ptr %36, align 8, !tbaa !118
  %indvars.iv.next = add nuw nsw i64 %indvars.iv, 1
  %exitcond.not = icmp eq i64 %indvars.iv.next, %wide.trip.count
  br i1 %exitcond.not, label %._crit_edge, label %12, !llvm.loop !119

._crit_edge:                                      ; preds = %12, %2
  ret void
}